
DIO_3.elf:     file format elf32-avr

Sections:
Idx Name          Size      VMA       LMA       File off  Algn
  0 .text         00000348  00000000  00000000  00000074  2**1
                  CONTENTS, ALLOC, LOAD, READONLY, CODE
  1 .data         0000000a  00800060  00000348  000003bc  2**0
                  CONTENTS, ALLOC, LOAD, DATA

Disassembly of section .text:

00000000 <__vectors>:
   0:	0c 94 2a 00 	jmp	0x54	; 0x54 <__ctors_end>
   4:	0c 94 3f 00 	jmp	0x7e	; 0x7e <__bad_interrupt>
   8:	0c 94 3f 00 	jmp	0x7e	; 0x7e <__bad_interrupt>
   c:	0c 94 3f 00 	jmp	0x7e	; 0x7e <__bad_interrupt>
  10:	0c 94 3f 00 	jmp	0x7e	; 0x7e <__bad_interrupt>
  14:	0c 94 3f 00 	jmp	0x7e	; 0x7e <__bad_interrupt>
  18:	0c 94 3f 00 	jmp	0x7e	; 0x7e <__bad_interrupt>
  1c:	0c 94 3f 00 	jmp	0x7e	; 0x7e <__bad_interrupt>
  20:	0c 94 3f 00 	jmp	0x7e	; 0x7e <__bad_interrupt>
  24:	0c 94 3f 00 	jmp	0x7e	; 0x7e <__bad_interrupt>
  28:	0c 94 3f 00 	jmp	0x7e	; 0x7e <__bad_interrupt>
  2c:	0c 94 3f 00 	jmp	0x7e	; 0x7e <__bad_interrupt>
  30:	0c 94 3f 00 	jmp	0x7e	; 0x7e <__bad_interrupt>
  34:	0c 94 3f 00 	jmp	0x7e	; 0x7e <__bad_interrupt>
  38:	0c 94 3f 00 	jmp	0x7e	; 0x7e <__bad_interrupt>
  3c:	0c 94 3f 00 	jmp	0x7e	; 0x7e <__bad_interrupt>
  40:	0c 94 3f 00 	jmp	0x7e	; 0x7e <__bad_interrupt>
  44:	0c 94 3f 00 	jmp	0x7e	; 0x7e <__bad_interrupt>
  48:	0c 94 3f 00 	jmp	0x7e	; 0x7e <__bad_interrupt>
  4c:	0c 94 3f 00 	jmp	0x7e	; 0x7e <__bad_interrupt>
  50:	0c 94 3f 00 	jmp	0x7e	; 0x7e <__bad_interrupt>

00000054 <__ctors_end>:
  54:	11 24       	eor	r1, r1
  56:	1f be       	out	0x3f, r1	; 63
  58:	cf e5       	ldi	r28, 0x5F	; 95
  5a:	d8 e0       	ldi	r29, 0x08	; 8
  5c:	de bf       	out	0x3e, r29	; 62
  5e:	cd bf       	out	0x3d, r28	; 61

00000060 <__do_copy_data>:
  60:	10 e0       	ldi	r17, 0x00	; 0
  62:	a0 e6       	ldi	r26, 0x60	; 96
  64:	b0 e0       	ldi	r27, 0x00	; 0
  66:	e8 e4       	ldi	r30, 0x48	; 72
  68:	f3 e0       	ldi	r31, 0x03	; 3
  6a:	02 c0       	rjmp	.+4      	; 0x70 <.do_copy_data_start>

0000006c <.do_copy_data_loop>:
  6c:	05 90       	lpm	r0, Z+
  6e:	0d 92       	st	X+, r0

00000070 <.do_copy_data_start>:
  70:	aa 36       	cpi	r26, 0x6A	; 106
  72:	b1 07       	cpc	r27, r17
  74:	d9 f7       	brne	.-10     	; 0x6c <.do_copy_data_loop>
  76:	0e 94 8b 01 	call	0x316	; 0x316 <main>
  7a:	0c 94 a2 01 	jmp	0x344	; 0x344 <_exit>

0000007e <__bad_interrupt>:
  7e:	0c 94 00 00 	jmp	0	; 0x0 <__vectors>

00000082 <SSD_DisplayNumber>:
  82:	8a 30       	cpi	r24, 0x0A	; 10
  84:	40 f4       	brcc	.+16     	; 0x96 <SSD_DisplayNumber+0x14>
  86:	e8 2f       	mov	r30, r24
  88:	f0 e0       	ldi	r31, 0x00	; 0
  8a:	e0 5a       	subi	r30, 0xA0	; 160
  8c:	ff 4f       	sbci	r31, 0xFF	; 255
  8e:	80 e0       	ldi	r24, 0x00	; 0
  90:	60 81       	ld	r22, Z
  92:	0e 94 68 01 	call	0x2d0	; 0x2d0 <DIO_SETPortValue>
  96:	08 95       	ret

00000098 <SSD_Init>:
  98:	80 e0       	ldi	r24, 0x00	; 0
  9a:	60 e0       	ldi	r22, 0x00	; 0
  9c:	0e 94 57 01 	call	0x2ae	; 0x2ae <DIO_SETPortDirection>
  a0:	08 95       	ret

000000a2 <DIO_SETPinDirection>:
  a2:	41 30       	cpi	r20, 0x01	; 1
  a4:	b1 f5       	brne	.+108    	; 0x112 <DIO_SETPinDirection+0x70>
  a6:	81 30       	cpi	r24, 0x01	; 1
  a8:	99 f0       	breq	.+38     	; 0xd0 <DIO_SETPinDirection+0x2e>
  aa:	81 30       	cpi	r24, 0x01	; 1
  ac:	30 f0       	brcs	.+12     	; 0xba <DIO_SETPinDirection+0x18>
  ae:	82 30       	cpi	r24, 0x02	; 2
  b0:	d1 f0       	breq	.+52     	; 0xe6 <DIO_SETPinDirection+0x44>
  b2:	83 30       	cpi	r24, 0x03	; 3
  b4:	09 f0       	breq	.+2      	; 0xb8 <DIO_SETPinDirection+0x16>
  b6:	67 c0       	rjmp	.+206    	; 0x186 <DIO_SETPinDirection+0xe4>
  b8:	21 c0       	rjmp	.+66     	; 0xfc <DIO_SETPinDirection+0x5a>
  ba:	2a b3       	in	r18, 0x1a	; 26
  bc:	81 e0       	ldi	r24, 0x01	; 1
  be:	90 e0       	ldi	r25, 0x00	; 0
  c0:	02 c0       	rjmp	.+4      	; 0xc6 <DIO_SETPinDirection+0x24>
  c2:	88 0f       	add	r24, r24
  c4:	99 1f       	adc	r25, r25
  c6:	6a 95       	dec	r22
  c8:	e2 f7       	brpl	.-8      	; 0xc2 <DIO_SETPinDirection+0x20>
  ca:	28 2b       	or	r18, r24
  cc:	2a bb       	out	0x1a, r18	; 26
  ce:	08 95       	ret
  d0:	27 b3       	in	r18, 0x17	; 23
  d2:	81 e0       	ldi	r24, 0x01	; 1
  d4:	90 e0       	ldi	r25, 0x00	; 0
  d6:	02 c0       	rjmp	.+4      	; 0xdc <DIO_SETPinDirection+0x3a>
  d8:	88 0f       	add	r24, r24
  da:	99 1f       	adc	r25, r25
  dc:	6a 95       	dec	r22
  de:	e2 f7       	brpl	.-8      	; 0xd8 <DIO_SETPinDirection+0x36>
  e0:	28 2b       	or	r18, r24
  e2:	27 bb       	out	0x17, r18	; 23
  e4:	08 95       	ret
  e6:	24 b3       	in	r18, 0x14	; 20
  e8:	81 e0       	ldi	r24, 0x01	; 1
  ea:	90 e0       	ldi	r25, 0x00	; 0
  ec:	02 c0       	rjmp	.+4      	; 0xf2 <DIO_SETPinDirection+0x50>
  ee:	88 0f       	add	r24, r24
  f0:	99 1f       	adc	r25, r25
  f2:	6a 95       	dec	r22
  f4:	e2 f7       	brpl	.-8      	; 0xee <DIO_SETPinDirection+0x4c>
  f6:	28 2b       	or	r18, r24
  f8:	24 bb       	out	0x14, r18	; 20
  fa:	08 95       	ret
  fc:	21 b3       	in	r18, 0x11	; 17
  fe:	81 e0       	ldi	r24, 0x01	; 1
 100:	90 e0       	ldi	r25, 0x00	; 0
 102:	02 c0       	rjmp	.+4      	; 0x108 <DIO_SETPinDirection+0x66>
 104:	88 0f       	add	r24, r24
 106:	99 1f       	adc	r25, r25
 108:	6a 95       	dec	r22
 10a:	e2 f7       	brpl	.-8      	; 0x104 <DIO_SETPinDirection+0x62>
 10c:	28 2b       	or	r18, r24
 10e:	21 bb       	out	0x11, r18	; 17
 110:	08 95       	ret
 112:	44 23       	and	r20, r20
 114:	c1 f5       	brne	.+112    	; 0x186 <DIO_SETPinDirection+0xe4>
 116:	81 30       	cpi	r24, 0x01	; 1
 118:	99 f0       	breq	.+38     	; 0x140 <DIO_SETPinDirection+0x9e>
 11a:	81 30       	cpi	r24, 0x01	; 1
 11c:	28 f0       	brcs	.+10     	; 0x128 <DIO_SETPinDirection+0x86>
 11e:	82 30       	cpi	r24, 0x02	; 2
 120:	d9 f0       	breq	.+54     	; 0x158 <DIO_SETPinDirection+0xb6>
 122:	83 30       	cpi	r24, 0x03	; 3
 124:	81 f5       	brne	.+96     	; 0x186 <DIO_SETPinDirection+0xe4>
 126:	24 c0       	rjmp	.+72     	; 0x170 <DIO_SETPinDirection+0xce>
 128:	2a b3       	in	r18, 0x1a	; 26
 12a:	81 e0       	ldi	r24, 0x01	; 1
 12c:	90 e0       	ldi	r25, 0x00	; 0
 12e:	02 c0       	rjmp	.+4      	; 0x134 <DIO_SETPinDirection+0x92>
 130:	88 0f       	add	r24, r24
 132:	99 1f       	adc	r25, r25
 134:	6a 95       	dec	r22
 136:	e2 f7       	brpl	.-8      	; 0x130 <DIO_SETPinDirection+0x8e>
 138:	80 95       	com	r24
 13a:	82 23       	and	r24, r18
 13c:	8a bb       	out	0x1a, r24	; 26
 13e:	08 95       	ret
 140:	27 b3       	in	r18, 0x17	; 23
 142:	81 e0       	ldi	r24, 0x01	; 1
 144:	90 e0       	ldi	r25, 0x00	; 0
 146:	02 c0       	rjmp	.+4      	; 0x14c <DIO_SETPinDirection+0xaa>
 148:	88 0f       	add	r24, r24
 14a:	99 1f       	adc	r25, r25
 14c:	6a 95       	dec	r22
 14e:	e2 f7       	brpl	.-8      	; 0x148 <DIO_SETPinDirection+0xa6>
 150:	80 95       	com	r24
 152:	82 23       	and	r24, r18
 154:	87 bb       	out	0x17, r24	; 23
 156:	08 95       	ret
 158:	24 b3       	in	r18, 0x14	; 20
 15a:	81 e0       	ldi	r24, 0x01	; 1
 15c:	90 e0       	ldi	r25, 0x00	; 0
 15e:	02 c0       	rjmp	.+4      	; 0x164 <DIO_SETPinDirection+0xc2>
 160:	88 0f       	add	r24, r24
 162:	99 1f       	adc	r25, r25
 164:	6a 95       	dec	r22
 166:	e2 f7       	brpl	.-8      	; 0x160 <DIO_SETPinDirection+0xbe>
 168:	80 95       	com	r24
 16a:	82 23       	and	r24, r18
 16c:	84 bb       	out	0x14, r24	; 20
 16e:	08 95       	ret
 170:	21 b3       	in	r18, 0x11	; 17
 172:	81 e0       	ldi	r24, 0x01	; 1
 174:	90 e0       	ldi	r25, 0x00	; 0
 176:	02 c0       	rjmp	.+4      	; 0x17c <DIO_SETPinDirection+0xda>
 178:	88 0f       	add	r24, r24
 17a:	99 1f       	adc	r25, r25
 17c:	6a 95       	dec	r22
 17e:	e2 f7       	brpl	.-8      	; 0x178 <DIO_SETPinDirection+0xd6>
 180:	80 95       	com	r24
 182:	82 23       	and	r24, r18
 184:	81 bb       	out	0x11, r24	; 17
 186:	08 95       	ret

00000188 <DIO_SETPinValue>:
 188:	41 30       	cpi	r20, 0x01	; 1
 18a:	b1 f5       	brne	.+108    	; 0x1f8 <DIO_SETPinValue+0x70>
 18c:	81 30       	cpi	r24, 0x01	; 1
 18e:	99 f0       	breq	.+38     	; 0x1b6 <DIO_SETPinValue+0x2e>
 190:	81 30       	cpi	r24, 0x01	; 1
 192:	30 f0       	brcs	.+12     	; 0x1a0 <DIO_SETPinValue+0x18>
 194:	82 30       	cpi	r24, 0x02	; 2
 196:	d1 f0       	breq	.+52     	; 0x1cc <DIO_SETPinValue+0x44>
 198:	83 30       	cpi	r24, 0x03	; 3
 19a:	09 f0       	breq	.+2      	; 0x19e <DIO_SETPinValue+0x16>
 19c:	67 c0       	rjmp	.+206    	; 0x26c <DIO_SETPinValue+0xe4>
 19e:	21 c0       	rjmp	.+66     	; 0x1e2 <DIO_SETPinValue+0x5a>
 1a0:	2b b3       	in	r18, 0x1b	; 27
 1a2:	81 e0       	ldi	r24, 0x01	; 1
 1a4:	90 e0       	ldi	r25, 0x00	; 0
 1a6:	02 c0       	rjmp	.+4      	; 0x1ac <DIO_SETPinValue+0x24>
 1a8:	88 0f       	add	r24, r24
 1aa:	99 1f       	adc	r25, r25
 1ac:	6a 95       	dec	r22
 1ae:	e2 f7       	brpl	.-8      	; 0x1a8 <DIO_SETPinValue+0x20>
 1b0:	28 2b       	or	r18, r24
 1b2:	2b bb       	out	0x1b, r18	; 27
 1b4:	08 95       	ret
 1b6:	28 b3       	in	r18, 0x18	; 24
 1b8:	81 e0       	ldi	r24, 0x01	; 1
 1ba:	90 e0       	ldi	r25, 0x00	; 0
 1bc:	02 c0       	rjmp	.+4      	; 0x1c2 <DIO_SETPinValue+0x3a>
 1be:	88 0f       	add	r24, r24
 1c0:	99 1f       	adc	r25, r25
 1c2:	6a 95       	dec	r22
 1c4:	e2 f7       	brpl	.-8      	; 0x1be <DIO_SETPinValue+0x36>
 1c6:	28 2b       	or	r18, r24
 1c8:	28 bb       	out	0x18, r18	; 24
 1ca:	08 95       	ret
 1cc:	25 b3       	in	r18, 0x15	; 21
 1ce:	81 e0       	ldi	r24, 0x01	; 1
 1d0:	90 e0       	ldi	r25, 0x00	; 0
 1d2:	02 c0       	rjmp	.+4      	; 0x1d8 <DIO_SETPinValue+0x50>
 1d4:	88 0f       	add	r24, r24
 1d6:	99 1f       	adc	r25, r25
 1d8:	6a 95       	dec	r22
 1da:	e2 f7       	brpl	.-8      	; 0x1d4 <DIO_SETPinValue+0x4c>
 1dc:	28 2b       	or	r18, r24
 1de:	25 bb       	out	0x15, r18	; 21
 1e0:	08 95       	ret
 1e2:	22 b3       	in	r18, 0x12	; 18
 1e4:	81 e0       	ldi	r24, 0x01	; 1
 1e6:	90 e0       	ldi	r25, 0x00	; 0
 1e8:	02 c0       	rjmp	.+4      	; 0x1ee <DIO_SETPinValue+0x66>
 1ea:	88 0f       	add	r24, r24
 1ec:	99 1f       	adc	r25, r25
 1ee:	6a 95       	dec	r22
 1f0:	e2 f7       	brpl	.-8      	; 0x1ea <DIO_SETPinValue+0x62>
 1f2:	28 2b       	or	r18, r24
 1f4:	22 bb       	out	0x12, r18	; 18
 1f6:	08 95       	ret
 1f8:	44 23       	and	r20, r20
 1fa:	c1 f5       	brne	.+112    	; 0x26c <DIO_SETPinValue+0xe4>
 1fc:	81 30       	cpi	r24, 0x01	; 1
 1fe:	99 f0       	breq	.+38     	; 0x226 <DIO_SETPinValue+0x9e>
 200:	81 30       	cpi	r24, 0x01	; 1
 202:	28 f0       	brcs	.+10     	; 0x20e <DIO_SETPinValue+0x86>
 204:	82 30       	cpi	r24, 0x02	; 2
 206:	d9 f0       	breq	.+54     	; 0x23e <DIO_SETPinValue+0xb6>
 208:	83 30       	cpi	r24, 0x03	; 3
 20a:	81 f5       	brne	.+96     	; 0x26c <DIO_SETPinValue+0xe4>
 20c:	24 c0       	rjmp	.+72     	; 0x256 <DIO_SETPinValue+0xce>
 20e:	2b b3       	in	r18, 0x1b	; 27
 210:	81 e0       	ldi	r24, 0x01	; 1
 212:	90 e0       	ldi	r25, 0x00	; 0
 214:	02 c0       	rjmp	.+4      	; 0x21a <DIO_SETPinValue+0x92>
 216:	88 0f       	add	r24, r24
 218:	99 1f       	adc	r25, r25
 21a:	6a 95       	dec	r22
 21c:	e2 f7       	brpl	.-8      	; 0x216 <DIO_SETPinValue+0x8e>
 21e:	80 95       	com	r24
 220:	82 23       	and	r24, r18
 222:	8b bb       	out	0x1b, r24	; 27
 224:	08 95       	ret
 226:	28 b3       	in	r18, 0x18	; 24
 228:	81 e0       	ldi	r24, 0x01	; 1
 22a:	90 e0       	ldi	r25, 0x00	; 0
 22c:	02 c0       	rjmp	.+4      	; 0x232 <DIO_SETPinValue+0xaa>
 22e:	88 0f       	add	r24, r24
 230:	99 1f       	adc	r25, r25
 232:	6a 95       	dec	r22
 234:	e2 f7       	brpl	.-8      	; 0x22e <DIO_SETPinValue+0xa6>
 236:	80 95       	com	r24
 238:	82 23       	and	r24, r18
 23a:	88 bb       	out	0x18, r24	; 24
 23c:	08 95       	ret
 23e:	25 b3       	in	r18, 0x15	; 21
 240:	81 e0       	ldi	r24, 0x01	; 1
 242:	90 e0       	ldi	r25, 0x00	; 0
 244:	02 c0       	rjmp	.+4      	; 0x24a <DIO_SETPinValue+0xc2>
 246:	88 0f       	add	r24, r24
 248:	99 1f       	adc	r25, r25
 24a:	6a 95       	dec	r22
 24c:	e2 f7       	brpl	.-8      	; 0x246 <DIO_SETPinValue+0xbe>
 24e:	80 95       	com	r24
 250:	82 23       	and	r24, r18
 252:	85 bb       	out	0x15, r24	; 21
 254:	08 95       	ret
 256:	22 b3       	in	r18, 0x12	; 18
 258:	81 e0       	ldi	r24, 0x01	; 1
 25a:	90 e0       	ldi	r25, 0x00	; 0
 25c:	02 c0       	rjmp	.+4      	; 0x262 <DIO_SETPinValue+0xda>
 25e:	88 0f       	add	r24, r24
 260:	99 1f       	adc	r25, r25
 262:	6a 95       	dec	r22
 264:	e2 f7       	brpl	.-8      	; 0x25e <DIO_SETPinValue+0xd6>
 266:	80 95       	com	r24
 268:	82 23       	and	r24, r18
 26a:	82 bb       	out	0x12, r24	; 18
 26c:	08 95       	ret

0000026e <DIO_GETPinValue>:
 26e:	81 30       	cpi	r24, 0x01	; 1
 270:	51 f0       	breq	.+20     	; 0x286 <DIO_GETPinValue+0x18>
 272:	81 30       	cpi	r24, 0x01	; 1
 274:	30 f0       	brcs	.+12     	; 0x282 <DIO_GETPinValue+0x14>
 276:	82 30       	cpi	r24, 0x02	; 2
 278:	41 f0       	breq	.+16     	; 0x28a <DIO_GETPinValue+0x1c>
 27a:	83 30       	cpi	r24, 0x03	; 3
 27c:	79 f0       	breq	.+30     	; 0x29c <DIO_GETPinValue+0x2e>
 27e:	80 e0       	ldi	r24, 0x00	; 0
 280:	08 95       	ret
 282:	89 b3       	in	r24, 0x19	; 25
 284:	03 c0       	rjmp	.+6      	; 0x28c <DIO_GETPinValue+0x1e>
 286:	86 b3       	in	r24, 0x16	; 22
 288:	01 c0       	rjmp	.+2      	; 0x28c <DIO_GETPinValue+0x1e>
 28a:	83 b3       	in	r24, 0x13	; 19
 28c:	90 e0       	ldi	r25, 0x00	; 0
 28e:	02 c0       	rjmp	.+4      	; 0x294 <DIO_GETPinValue+0x26>
 290:	95 95       	asr	r25
 292:	87 95       	ror	r24
 294:	6a 95       	dec	r22
 296:	e2 f7       	brpl	.-8      	; 0x290 <DIO_GETPinValue+0x22>
 298:	81 70       	andi	r24, 0x01	; 1
 29a:	08 95       	ret
 29c:	80 b3       	in	r24, 0x10	; 16
 29e:	90 e0       	ldi	r25, 0x00	; 0
 2a0:	02 c0       	rjmp	.+4      	; 0x2a6 <DIO_GETPinValue+0x38>
 2a2:	95 95       	asr	r25
 2a4:	87 95       	ror	r24
 2a6:	6a 95       	dec	r22
 2a8:	e2 f7       	brpl	.-8      	; 0x2a2 <DIO_GETPinValue+0x34>
 2aa:	81 70       	andi	r24, 0x01	; 1
 2ac:	08 95       	ret

000002ae <DIO_SETPortDirection>:
 2ae:	81 30       	cpi	r24, 0x01	; 1
 2b0:	49 f0       	breq	.+18     	; 0x2c4 <DIO_SETPortDirection+0x16>
 2b2:	81 30       	cpi	r24, 0x01	; 1
 2b4:	28 f0       	brcs	.+10     	; 0x2c0 <DIO_SETPortDirection+0x12>
 2b6:	82 30       	cpi	r24, 0x02	; 2
 2b8:	39 f0       	breq	.+14     	; 0x2c8 <DIO_SETPortDirection+0x1a>
 2ba:	83 30       	cpi	r24, 0x03	; 3
 2bc:	41 f4       	brne	.+16     	; 0x2ce <DIO_SETPortDirection+0x20>
 2be:	06 c0       	rjmp	.+12     	; 0x2cc <DIO_SETPortDirection+0x1e>
 2c0:	6a bb       	out	0x1a, r22	; 26
 2c2:	08 95       	ret
 2c4:	67 bb       	out	0x17, r22	; 23
 2c6:	08 95       	ret
 2c8:	64 bb       	out	0x14, r22	; 20
 2ca:	08 95       	ret
 2cc:	61 bb       	out	0x11, r22	; 17
 2ce:	08 95       	ret

000002d0 <DIO_SETPortValue>:
 2d0:	81 30       	cpi	r24, 0x01	; 1
 2d2:	49 f0       	breq	.+18     	; 0x2e6 <DIO_SETPortValue+0x16>
 2d4:	81 30       	cpi	r24, 0x01	; 1
 2d6:	28 f0       	brcs	.+10     	; 0x2e2 <DIO_SETPortValue+0x12>
 2d8:	82 30       	cpi	r24, 0x02	; 2
 2da:	39 f0       	breq	.+14     	; 0x2ea <DIO_SETPortValue+0x1a>
 2dc:	83 30       	cpi	r24, 0x03	; 3
 2de:	41 f4       	brne	.+16     	; 0x2f0 <DIO_SETPortValue+0x20>
 2e0:	06 c0       	rjmp	.+12     	; 0x2ee <DIO_SETPortValue+0x1e>
 2e2:	6a bb       	out	0x1a, r22	; 26
 2e4:	08 95       	ret
 2e6:	67 bb       	out	0x17, r22	; 23
 2e8:	08 95       	ret
 2ea:	64 bb       	out	0x14, r22	; 20
 2ec:	08 95       	ret
 2ee:	61 bb       	out	0x11, r22	; 17
 2f0:	08 95       	ret

000002f2 <DIO_GETPortValue>:
 2f2:	81 30       	cpi	r24, 0x01	; 1
 2f4:	51 f0       	breq	.+20     	; 0x30a <DIO_GETPortValue+0x18>
 2f6:	81 30       	cpi	r24, 0x01	; 1
 2f8:	30 f0       	brcs	.+12     	; 0x306 <DIO_GETPortValue+0x14>
 2fa:	82 30       	cpi	r24, 0x02	; 2
 2fc:	41 f0       	breq	.+16     	; 0x30e <DIO_GETPortValue+0x1c>
 2fe:	83 30       	cpi	r24, 0x03	; 3
 300:	41 f0       	breq	.+16     	; 0x312 <DIO_GETPortValue+0x20>
 302:	80 e0       	ldi	r24, 0x00	; 0
 304:	08 95       	ret
 306:	89 b3       	in	r24, 0x19	; 25
 308:	08 95       	ret
 30a:	86 b3       	in	r24, 0x16	; 22
 30c:	08 95       	ret
 30e:	83 b3       	in	r24, 0x13	; 19
 310:	08 95       	ret
 312:	80 b3       	in	r24, 0x10	; 16
 314:	08 95       	ret

00000316 <main>:
 316:	1f 93       	push	r17
 318:	cf 93       	push	r28
 31a:	df 93       	push	r29
 31c:	0e 94 4c 00 	call	0x98	; 0x98 <SSD_Init>
 320:	10 e0       	ldi	r17, 0x00	; 0
 322:	c8 ec       	ldi	r28, 0xC8	; 200
 324:	d0 e0       	ldi	r29, 0x00	; 0
 326:	81 2f       	mov	r24, r17
 328:	0e 94 41 00 	call	0x82	; 0x82 <SSD_DisplayNumber>
 32c:	88 e8       	ldi	r24, 0x88	; 136
 32e:	93 e1       	ldi	r25, 0x13	; 19
 330:	fe 01       	movw	r30, r28
 332:	31 97       	sbiw	r30, 0x01	; 1
 334:	f1 f7       	brne	.-4      	; 0x332 <main+0x1c>
 336:	01 97       	sbiw	r24, 0x01	; 1
 338:	d9 f7       	brne	.-10     	; 0x330 <main+0x1a>
 33a:	1f 5f       	subi	r17, 0xFF	; 255
 33c:	1a 30       	cpi	r17, 0x0A	; 10
 33e:	98 f3       	brcs	.-26     	; 0x326 <main+0x10>
 340:	10 e0       	ldi	r17, 0x00	; 0
 342:	f1 cf       	rjmp	.-30     	; 0x326 <main+0x10>

00000344 <_exit>:
 344:	f8 94       	cli

00000346 <__stop_program>:
 346:	ff cf       	rjmp	.-2      	; 0x346 <__stop_program>
